target datalayout = "e-m:e-p270:32:32-p271:32:32-p272:64:64-i64:64-i128:128-f80:128-n8:16:32:64-S128"
target triple = "x86_64-pc-linux-gnu"

%struct.archive_write = type { %struct.archive, i32, i64, i64, ptr, i64, ptr, ptr, ptr, ptr, ptr, i32, i32, ptr, ptr, ptr, ptr, ptr, ptr, ptr, ptr, ptr, ptr, ptr, ptr, ptr, ptr }
%struct.archive = type { i32, i32, ptr, i32, ptr, i32, i32, ptr, %struct.archive_string, ptr, i32, i32, ptr, ptr, i64, i64, i64, i8, i64 }
%struct.archive_string = type { ptr, i64, i64 }
%struct.iso9660 = type { i64, i32, ptr, ptr, %struct.archive_string, i64, i32, %struct.archive_string, %struct.archive_string, ptr, ptr, %struct.anon, %struct.anon.0, %struct.archive_rb_tree, %struct.vdd, %struct.vdd, i32, i32, i32, %struct.archive_string, %struct.archive_string, %struct.archive_string, %struct.archive_string, %struct.archive_string, %struct.archive_string, %struct.archive_string, i32, %struct.anon.1, ptr, i32, [65536 x i8], i64, i32, i64, i64, i64, %struct.anon.2, %struct.iso_option }
%struct.anon = type { ptr, ptr }
%struct.anon.0 = type { ptr, ptr }
%struct.archive_rb_tree = type { ptr, ptr }
%struct.vdd = type { ptr, i32, ptr, i32, i32, i32, i32, i32, i32 }
%struct.anon.1 = type { i8, [64 x i8], i32, ptr, i64, i32, i32, i64, i64, %struct.z_stream_s, i32, i64, i32 }
%struct.z_stream_s = type { ptr, i32, i64, ptr, i32, i64, ptr, ptr, ptr, ptr, ptr, i32, i64, i64 }
%struct.anon.2 = type { %struct.archive_string, ptr, %struct.archive_string, ptr, i8, %struct.archive_string, i8, i8, i16, i16 }
%struct.iso_option = type { i32 }

@.str.57 = private unnamed_addr constant [79 x i8] c"Internal Programming error: iso9660:wb_consume() size=%jd, wbuff_remaining=%jd\00", align 1
@.str.64 = private unnamed_addr constant [31 x i8] c"Can't read temporary file(%jd)\00", align 1

; Function Attrs: nounwind uwtable
define internal i32 @wb_consume(ptr noundef %0, i64 noundef %1) #0 {
  %3 = alloca i32, align 4
  %4 = alloca ptr, align 8
  %5 = alloca i64, align 8
  %6 = alloca ptr, align 8
  %7 = alloca i32, align 4
  store ptr %0, ptr %4, align 8, !tbaa !9
  store i64 %1, ptr %5, align 8, !tbaa !154
  call void @llvm.lifetime.start.p0(i64 8, ptr %6) #13
  %8 = load ptr, ptr %4, align 8, !tbaa !9
  %9 = getelementptr inbounds nuw %struct.archive_write, ptr %8, i32 0, i32 15
  %10 = load ptr, ptr %9, align 8, !tbaa !120
  store ptr %10, ptr %6, align 8, !tbaa !22
  %11 = load i64, ptr %5, align 8, !tbaa !154
  %12 = load ptr, ptr %6, align 8, !tbaa !22
  %13 = getelementptr inbounds nuw %struct.iso9660, ptr %12, i32 0, i32 31
  %14 = load i64, ptr %13, align 8, !tbaa !53
  %15 = icmp ugt i64 %11, %14
  br i1 %15, label %21, label %16

16:                                               ; preds = %2
  %17 = load ptr, ptr %6, align 8, !tbaa !22
  %18 = getelementptr inbounds nuw %struct.iso9660, ptr %17, i32 0, i32 31
  %19 = load i64, ptr %18, align 8, !tbaa !53
  %20 = icmp eq i64 %19, 0
  br i1 %20, label %21, label %28

21:                                               ; preds = %16, %2
  %22 = load ptr, ptr %4, align 8, !tbaa !9
  %23 = getelementptr inbounds nuw %struct.archive_write, ptr %22, i32 0, i32 0
  %24 = load i64, ptr %5, align 8, !tbaa !154
  %25 = load ptr, ptr %6, align 8, !tbaa !22
  %26 = getelementptr inbounds nuw %struct.iso9660, ptr %25, i32 0, i32 31
  %27 = load i64, ptr %26, align 8, !tbaa !53
  call void (ptr, i32, ptr, ...) @archive_set_error(ptr noundef %23, i32 noundef -1, ptr noundef @.str.57, i64 noundef %24, i64 noundef %27)
  store i32 -30, ptr %3, align 4
  store i32 1, ptr %7, align 4
  br label %42

28:                                               ; preds = %16
  %29 = load i64, ptr %5, align 8, !tbaa !154
  %30 = load ptr, ptr %6, align 8, !tbaa !22
  %31 = getelementptr inbounds nuw %struct.iso9660, ptr %30, i32 0, i32 31
  %32 = load i64, ptr %31, align 8, !tbaa !53
  %33 = sub i64 %32, %29
  store i64 %33, ptr %31, align 8, !tbaa !53
  %34 = load ptr, ptr %6, align 8, !tbaa !22
  %35 = getelementptr inbounds nuw %struct.iso9660, ptr %34, i32 0, i32 31
  %36 = load i64, ptr %35, align 8, !tbaa !53
  %37 = icmp ult i64 %36, 2048
  br i1 %37, label %38, label %41

38:                                               ; preds = %28
  %39 = load ptr, ptr %4, align 8, !tbaa !9
  %40 = call i32 @wb_write_out(ptr noundef %39)
  store i32 %40, ptr %3, align 4
  store i32 1, ptr %7, align 4
  br label %42

41:                                               ; preds = %28
  store i32 0, ptr %3, align 4
  store i32 1, ptr %7, align 4
  br label %42

42:                                               ; preds = %41, %38, %21
  call void @llvm.lifetime.end.p0(i64 8, ptr %6) #13
  %43 = load i32, ptr %3, align 4
  ret i32 %43
}

; Function Attrs: inlinehint nounwind uwtable
define internal ptr @wb_buffptr(ptr noundef %0) #10 {
  %2 = alloca ptr, align 8
  %3 = alloca ptr, align 8
  store ptr %0, ptr %2, align 8, !tbaa !9
  call void @llvm.lifetime.start.p0(i64 8, ptr %3) #13
  %4 = load ptr, ptr %2, align 8, !tbaa !9
  %5 = getelementptr inbounds nuw %struct.archive_write, ptr %4, i32 0, i32 15
  %6 = load ptr, ptr %5, align 8, !tbaa !120
  store ptr %6, ptr %3, align 8, !tbaa !22
  %7 = load ptr, ptr %3, align 8, !tbaa !22
  %8 = getelementptr inbounds nuw %struct.iso9660, ptr %7, i32 0, i32 30
  %9 = load ptr, ptr %3, align 8, !tbaa !22
  %10 = getelementptr inbounds nuw %struct.iso9660, ptr %9, i32 0, i32 31
  %11 = load i64, ptr %10, align 8, !tbaa !53
  %12 = sub i64 65536, %11
  %13 = getelementptr inbounds nuw [65536 x i8], ptr %8, i64 0, i64 %12
  call void @llvm.lifetime.end.p0(i64 8, ptr %3) #13
  ret ptr %13
}

; Function Attrs: nounwind uwtable
define internal i32 @write_file_contents(ptr noundef %0, i64 noundef %1, i64 noundef %2) #0 {
  %4 = alloca i32, align 4
  %5 = alloca ptr, align 8
  %6 = alloca i64, align 8
  %7 = alloca i64, align 8
  %8 = alloca ptr, align 8
  %9 = alloca i32, align 4
  %10 = alloca i64, align 8
  %11 = alloca i64, align 8
  %12 = alloca ptr, align 8
  %13 = alloca i32, align 4
  store ptr %0, ptr %5, align 8, !tbaa !9
  store i64 %1, ptr %6, align 8, !tbaa !154
  store i64 %2, ptr %7, align 8, !tbaa !154
  call void @llvm.lifetime.start.p0(i64 8, ptr %8) #13
  %14 = load ptr, ptr %5, align 8, !tbaa !9
  %15 = getelementptr inbounds nuw %struct.archive_write, ptr %14, i32 0, i32 15
  %16 = load ptr, ptr %15, align 8, !tbaa !120
  store ptr %16, ptr %8, align 8, !tbaa !22
  call void @llvm.lifetime.start.p0(i64 4, ptr %9) #13
  %17 = load ptr, ptr %8, align 8, !tbaa !22
  %18 = getelementptr inbounds nuw %struct.iso9660, ptr %17, i32 0, i32 1
  %19 = load i32, ptr %18, align 8, !tbaa !42
  %20 = load i64, ptr %6, align 8, !tbaa !154
  %21 = call i64 @lseek(i32 noundef %19, i64 noundef %20, i32 noundef 0) #13
  br label %22

22:                                               ; preds = %67, %3
  %23 = load i64, ptr %7, align 8, !tbaa !154
  %24 = icmp ne i64 %23, 0
  br i1 %24, label %25, label %68

25:                                               ; preds = %22
  call void @llvm.lifetime.start.p0(i64 8, ptr %10) #13
  call void @llvm.lifetime.start.p0(i64 8, ptr %11) #13
  call void @llvm.lifetime.start.p0(i64 8, ptr %12) #13
  %26 = load ptr, ptr %5, align 8, !tbaa !9
  %27 = call ptr @wb_buffptr(ptr noundef %26)
  store ptr %27, ptr %12, align 8, !tbaa !133
  %28 = load ptr, ptr %5, align 8, !tbaa !9
  %29 = getelementptr inbounds nuw %struct.archive_write, ptr %28, i32 0, i32 15
  %30 = load ptr, ptr %29, align 8, !tbaa !120
  %31 = getelementptr inbounds nuw %struct.iso9660, ptr %30, i32 0, i32 31
  %32 = load i64, ptr %31, align 8, !tbaa !53
  store i64 %32, ptr %10, align 8, !tbaa !154
  %33 = load i64, ptr %10, align 8, !tbaa !154
  %34 = load i64, ptr %7, align 8, !tbaa !154
  %35 = icmp ugt i64 %33, %34
  br i1 %35, label %36, label %38

36:                                               ; preds = %25
  %37 = load i64, ptr %7, align 8, !tbaa !154
  store i64 %37, ptr %10, align 8, !tbaa !154
  br label %38

38:                                               ; preds = %36, %25
  %39 = load ptr, ptr %8, align 8, !tbaa !22
  %40 = getelementptr inbounds nuw %struct.iso9660, ptr %39, i32 0, i32 1
  %41 = load i32, ptr %40, align 8, !tbaa !42
  %42 = load ptr, ptr %12, align 8, !tbaa !133
  %43 = load i64, ptr %10, align 8, !tbaa !154
  %44 = call i64 @read(i32 noundef %41, ptr noundef %42, i64 noundef %43)
  store i64 %44, ptr %11, align 8, !tbaa !154
  %45 = load i64, ptr %11, align 8, !tbaa !154
  %46 = icmp sle i64 %45, 0
  br i1 %46, label %47, label %53

47:                                               ; preds = %38
  %48 = load ptr, ptr %5, align 8, !tbaa !9
  %49 = getelementptr inbounds nuw %struct.archive_write, ptr %48, i32 0, i32 0
  %50 = call ptr @__errno_location() #16
  %51 = load i32, ptr %50, align 4, !tbaa !11
  %52 = load i64, ptr %11, align 8, !tbaa !154
  call void (ptr, i32, ptr, ...) @archive_set_error(ptr noundef %49, i32 noundef %51, ptr noundef @.str.64, i64 noundef %52)
  store i32 -30, ptr %4, align 4
  store i32 1, ptr %13, align 4
  br label %65

53:                                               ; preds = %38
  %54 = load i64, ptr %11, align 8, !tbaa !154
  %55 = load i64, ptr %7, align 8, !tbaa !154
  %56 = sub nsw i64 %55, %54
  store i64 %56, ptr %7, align 8, !tbaa !154
  %57 = load ptr, ptr %5, align 8, !tbaa !9
  %58 = load i64, ptr %11, align 8, !tbaa !154
  %59 = call i32 @wb_consume(ptr noundef %57, i64 noundef %58)
  store i32 %59, ptr %9, align 4, !tbaa !11
  %60 = load i32, ptr %9, align 4, !tbaa !11
  %61 = icmp slt i32 %60, 0
  br i1 %61, label %62, label %64

62:                                               ; preds = %53
  %63 = load i32, ptr %9, align 4, !tbaa !11
  store i32 %63, ptr %4, align 4
  store i32 1, ptr %13, align 4
  br label %65

64:                                               ; preds = %53
  store i32 0, ptr %13, align 4
  br label %65

65:                                               ; preds = %64, %62, %47
  call void @llvm.lifetime.end.p0(i64 8, ptr %12) #13
  call void @llvm.lifetime.end.p0(i64 8, ptr %11) #13
  call void @llvm.lifetime.end.p0(i64 8, ptr %10) #13
  %66 = load i32, ptr %13, align 4
  switch i32 %66, label %69 [
    i32 0, label %67
  ]

67:                                               ; preds = %65
  br label %22, !llvm.loop !448

68:                                               ; preds = %22
  store i32 0, ptr %4, align 4
  store i32 1, ptr %13, align 4
  br label %69

69:                                               ; preds = %68, %65
  call void @llvm.lifetime.end.p0(i64 4, ptr %9) #13
  call void @llvm.lifetime.end.p0(i64 8, ptr %8) #13
  %70 = load i32, ptr %4, align 4
  ret i32 %70
}