; Function Attrs: nounwind uwtable
define internal fastcc range(i32 -2147483648, 1) i32 @write_file_contents(ptr noundef %0, i64 noundef %1, i64 noundef range(i64 0, -2047) %2) unnamed_addr #0 {
  %4 = getelementptr inbounds nuw i8, ptr %0, i64 248
  %5 = load ptr, ptr %4, align 8, !tbaa !69
  %6 = getelementptr inbounds nuw i8, ptr %5, i64 8
  %7 = load i32, ptr %6, align 8, !tbaa !35
  %8 = tail call i64 @lseek(i32 noundef %7, i64 noundef %1, i32 noundef 0) #23
  br label %9

9:                                                ; preds = %32, %3
  %.023 = phi i64 [ %2, %3 ], [ %22, %32 ]
  %.not = icmp eq i64 %.023, 0
  br i1 %.not, label %.loopexit, label %10

10:                                               ; preds = %9
  %.val = load ptr, ptr %4, align 8, !tbaa !69
  %11 = getelementptr inbounds nuw i8, ptr %.val, i64 732
  %12 = getelementptr inbounds nuw i8, ptr %.val, i64 66272
  %13 = load i64, ptr %12, align 8, !tbaa !50
  %14 = sub i64 65536, %13
  %15 = getelementptr inbounds nuw [65536 x i8], ptr %11, i64 0, i64 %14
  %spec.select = tail call i64 @llvm.umin.i64(i64 %13, i64 %.023)
  %16 = load i32, ptr %6, align 8, !tbaa !35
  %17 = tail call i64 @read(i32 noundef %16, ptr noundef nonnull %15, i64 noundef %spec.select) #23
  %18 = icmp slt i64 %17, 1
  br i1 %18, label %.thread, label %21

.thread:                                          ; preds = %10
  %19 = tail call ptr @__errno_location() #26
  %20 = load i32, ptr %19, align 4, !tbaa !101
  tail call void (ptr, i32, ptr, ...) @archive_set_error(ptr noundef nonnull %0, i32 noundef %20, ptr noundef nonnull @.str.64, i64 noundef %17) #23
  br label %.loopexit

21:                                               ; preds = %10
  %22 = sub nsw i64 %.023, %17
  %23 = load ptr, ptr %4, align 8, !tbaa !69
  %24 = getelementptr inbounds nuw i8, ptr %23, i64 66272
  %25 = load i64, ptr %24, align 8, !tbaa !50
  %26 = icmp ugt i64 %17, %25
  br i1 %26, label %.thread33, label %27

.thread33:                                        ; preds = %21
  tail call void (ptr, i32, ptr, ...) @archive_set_error(ptr noundef nonnull %0, i32 noundef -1, ptr noundef nonnull @.str.57, i64 noundef %17, i64 noundef %25) #23
  br label %.loopexit

27:                                               ; preds = %21
  %28 = sub nuw i64 %25, %17
  store i64 %28, ptr %24, align 8, !tbaa !50
  %29 = icmp ult i64 %28, 2048
  br i1 %29, label %30, label %32

30:                                               ; preds = %27
  %31 = tail call fastcc i32 @wb_write_out(ptr noundef nonnull %0)
  br label %32

32:                                               ; preds = %30, %27
  %.0.i = phi i32 [ %31, %30 ], [ 0, %27 ]
  %33 = icmp sgt i32 %.0.i, -1
  br i1 %33, label %9, label %.loopexit, !llvm.loop !382

.loopexit:                                        ; preds = %9, %32, %.thread33, %.thread
  %.2 = phi i32 [ -30, %.thread ], [ -30, %.thread33 ], [ 0, %9 ], [ %.0.i, %32 ]
  ret i32 %.2
}